target datalayout = "e-m:e-p270:32:32-p271:32:32-p272:64:64-i64:64-i128:128-f80:128-n8:16:32:64-S128"
target triple = "x86_64-pc-linux-gnu"

%"class.Luau::DenseHashMap" = type { %"class.Luau::detail::DenseHashTable" }
%"class.Luau::detail::DenseHashTable" = type <{ ptr, i64, i64, ptr, [8 x i8] }>
%"struct.std::pair.344" = type <{ ptr, i8, [7 x i8] }>
%"class.Luau::Set" = type { %"class.Luau::DenseHashMap", i64 }

; Function Attrs: mustprogress nounwind uwtable
define linkonce_odr dso_local void @_ZN4Luau6detail16ItemInterfaceMapIPKNS_4TypeEbE7destroyEPSt4pairIS4_bEm(ptr noundef %0, i64 noundef %1) #2 comdat align 2 {
  %3 = alloca ptr, align 8
  %4 = alloca i64, align 8
  %5 = alloca i64, align 8
  store ptr %0, ptr %3, align 8, !tbaa !84
  store i64 %1, ptr %4, align 8, !tbaa !65
  call void @llvm.lifetime.start.p0(i64 8, ptr %5) #4
  store i64 0, ptr %5, align 8, !tbaa !65
  br label %6

6:                                                ; preds = %12, %2
  %7 = load i64, ptr %5, align 8, !tbaa !65
  %8 = load i64, ptr %4, align 8, !tbaa !65
  %9 = icmp ult i64 %7, %8
  br i1 %9, label %11, label %10

10:                                               ; preds = %6
  call void @llvm.lifetime.end.p0(i64 8, ptr %5) #4
  br label %15

11:                                               ; preds = %6
  br label %12

12:                                               ; preds = %11
  %13 = load i64, ptr %5, align 8, !tbaa !65
  %14 = add i64 %13, 1
  store i64 %14, ptr %5, align 8, !tbaa !65
  br label %6, !llvm.loop !721

15:                                               ; preds = %10
  ret void
}

; Function Attrs: noinline noreturn nounwind uwtable
define linkonce_odr hidden void @__clang_call_terminate(ptr noundef %0) #13 comdat {
  %2 = call ptr @__cxa_begin_catch(ptr %0) #4
  call void @_ZSt9terminatev() #22
  unreachable
}

; Function Attrs: mustprogress uwtable
define linkonce_odr dso_local void @_ZN4Luau6detail14DenseHashTableIPKNS_4TypeESt4pairIS4_bES5_IKS4_bENS0_16ItemInterfaceMapIS4_bEENS_16DenseHashPointerESt8equal_toIS4_EE7destroyEv(ptr noundef nonnull align 8 dereferenceable(34) %0) #6 comdat align 2 {
  %2 = alloca ptr, align 8
  store ptr %0, ptr %2, align 8, !tbaa !717
  %3 = load ptr, ptr %2, align 8
  %4 = getelementptr inbounds nuw %"class.Luau::detail::DenseHashTable", ptr %3, i32 0, i32 0
  %5 = load ptr, ptr %4, align 8, !tbaa !719
  %6 = getelementptr inbounds nuw %"class.Luau::detail::DenseHashTable", ptr %3, i32 0, i32 1
  %7 = load i64, ptr %6, align 8, !tbaa !720
  call void @_ZN4Luau6detail16ItemInterfaceMapIPKNS_4TypeEbE7destroyEPSt4pairIS4_bEm(ptr noundef %5, i64 noundef %7)
  %8 = getelementptr inbounds nuw %"class.Luau::detail::DenseHashTable", ptr %3, i32 0, i32 0
  %9 = load ptr, ptr %8, align 8, !tbaa !719
  call void @_ZdlPv(ptr noundef %9) #4
  %10 = getelementptr inbounds nuw %"class.Luau::detail::DenseHashTable", ptr %3, i32 0, i32 0
  store ptr null, ptr %10, align 8, !tbaa !719
  %11 = getelementptr inbounds nuw %"class.Luau::detail::DenseHashTable", ptr %3, i32 0, i32 1
  store i64 0, ptr %11, align 8, !tbaa !720
  ret void
}

; Function Attrs: mustprogress nounwind uwtable
define linkonce_odr dso_local void @_ZN4Luau6detail16ItemInterfaceMapIPKNS_4TypeEbE4fillEPSt4pairIS4_bEmRKS4_(ptr noundef %0, i64 noundef %1, ptr noundef nonnull align 8 dereferenceable(8) %2) #2 comdat align 2 {
  %4 = alloca ptr, align 8
  %5 = alloca i64, align 8
  %6 = alloca ptr, align 8
  %7 = alloca i64, align 8
  store ptr %0, ptr %4, align 8, !tbaa !84
  store i64 %1, ptr %5, align 8, !tbaa !65
  store ptr %2, ptr %6, align 8, !tbaa !62
  call void @llvm.lifetime.start.p0(i64 8, ptr %7) #4
  store i64 0, ptr %7, align 8, !tbaa !65
  br label %8

8:                                                ; preds = %24, %3
  %9 = load i64, ptr %7, align 8, !tbaa !65
  %10 = load i64, ptr %5, align 8, !tbaa !65
  %11 = icmp ult i64 %9, %10
  br i1 %11, label %13, label %12

12:                                               ; preds = %8
  call void @llvm.lifetime.end.p0(i64 8, ptr %7) #4
  br label %27

13:                                               ; preds = %8
  %14 = load ptr, ptr %4, align 8, !tbaa !84
  %15 = load i64, ptr %7, align 8, !tbaa !65
  %16 = getelementptr inbounds nuw %"struct.std::pair.344", ptr %14, i64 %15
  %17 = getelementptr inbounds nuw %"struct.std::pair.344", ptr %16, i32 0, i32 0
  %18 = load ptr, ptr %6, align 8, !tbaa !62
  %19 = load ptr, ptr %18, align 8, !tbaa !44
  store ptr %19, ptr %17, align 8, !tbaa !44
  %20 = load ptr, ptr %4, align 8, !tbaa !84
  %21 = load i64, ptr %7, align 8, !tbaa !65
  %22 = getelementptr inbounds nuw %"struct.std::pair.344", ptr %20, i64 %21
  %23 = getelementptr inbounds nuw %"struct.std::pair.344", ptr %22, i32 0, i32 1
  store i8 0, ptr %23, align 8, !tbaa !26
  br label %24

24:                                               ; preds = %13
  %25 = load i64, ptr %7, align 8, !tbaa !65
  %26 = add i64 %25, 1
  store i64 %26, ptr %7, align 8, !tbaa !65
  br label %8, !llvm.loop !1617

27:                                               ; preds = %12
  ret void
}

; Function Attrs: mustprogress nounwind uwtable
define linkonce_odr dso_local void @_ZN4Luau6detail14DenseHashTableIPKNS_4TypeESt4pairIS4_bES5_IKS4_bENS0_16ItemInterfaceMapIS4_bEENS_16DenseHashPointerESt8equal_toIS4_EED2Ev(ptr noundef nonnull align 8 dereferenceable(34) %0) unnamed_addr #2 comdat align 2 personality ptr @__gxx_personality_v0 {
  %2 = alloca ptr, align 8
  store ptr %0, ptr %2, align 8, !tbaa !717
  %3 = load ptr, ptr %2, align 8
  %4 = getelementptr inbounds nuw %"class.Luau::detail::DenseHashTable", ptr %3, i32 0, i32 0
  %5 = load ptr, ptr %4, align 8, !tbaa !719
  %6 = icmp ne ptr %5, null
  br i1 %6, label %7, label %9

7:                                                ; preds = %1
  invoke void @_ZN4Luau6detail14DenseHashTableIPKNS_4TypeESt4pairIS4_bES5_IKS4_bENS0_16ItemInterfaceMapIS4_bEENS_16DenseHashPointerESt8equal_toIS4_EE7destroyEv(ptr noundef nonnull align 8 dereferenceable(34) %3)
          to label %8 unwind label %10

8:                                                ; preds = %7
  br label %9

9:                                                ; preds = %8, %1
  ret void

10:                                               ; preds = %7
  %11 = landingpad { ptr, i32 }
          catch ptr null
  %12 = extractvalue { ptr, i32 } %11, 0
  call void @__clang_call_terminate(ptr %12) #22
  unreachable
}

; Function Attrs: mustprogress uwtable
define linkonce_odr dso_local void @_ZN4Luau6detail14DenseHashTableIPKNS_4TypeESt4pairIS4_bES5_IKS4_bENS0_16ItemInterfaceMapIS4_bEENS_16DenseHashPointerESt8equal_toIS4_EEC2ERS7_m(ptr noundef nonnull align 8 dereferenceable(34) %0, ptr noundef nonnull align 8 dereferenceable(8) %1, i64 noundef %2) unnamed_addr #6 comdat align 2 {
  %4 = alloca ptr, align 8
  %5 = alloca ptr, align 8
  %6 = alloca i64, align 8
  store ptr %0, ptr %4, align 8, !tbaa !717
  store ptr %1, ptr %5, align 8, !tbaa !62
  store i64 %2, ptr %6, align 8, !tbaa !65
  %7 = load ptr, ptr %4, align 8
  %8 = getelementptr inbounds nuw %"class.Luau::detail::DenseHashTable", ptr %7, i32 0, i32 0
  store ptr null, ptr %8, align 8, !tbaa !719
  %9 = getelementptr inbounds nuw %"class.Luau::detail::DenseHashTable", ptr %7, i32 0, i32 1
  store i64 0, ptr %9, align 8, !tbaa !720
  %10 = getelementptr inbounds nuw %"class.Luau::detail::DenseHashTable", ptr %7, i32 0, i32 2
  store i64 0, ptr %10, align 8, !tbaa !949
  %11 = getelementptr inbounds nuw %"class.Luau::detail::DenseHashTable", ptr %7, i32 0, i32 3
  %12 = load ptr, ptr %5, align 8, !tbaa !62
  %13 = load ptr, ptr %12, align 8, !tbaa !44
  store ptr %13, ptr %11, align 8, !tbaa !950
  %14 = load i64, ptr %6, align 8, !tbaa !65
  %15 = icmp ne i64 %14, 0
  br i1 %15, label %16, label %27

16:                                               ; preds = %3
  %17 = load i64, ptr %6, align 8, !tbaa !65
  %18 = mul i64 16, %17
  %19 = call noalias noundef nonnull ptr @_Znwm(i64 noundef %18) #27
  %20 = getelementptr inbounds nuw %"class.Luau::detail::DenseHashTable", ptr %7, i32 0, i32 0
  store ptr %19, ptr %20, align 8, !tbaa !719
  %21 = load i64, ptr %6, align 8, !tbaa !65
  %22 = getelementptr inbounds nuw %"class.Luau::detail::DenseHashTable", ptr %7, i32 0, i32 1
  store i64 %21, ptr %22, align 8, !tbaa !720
  %23 = getelementptr inbounds nuw %"class.Luau::detail::DenseHashTable", ptr %7, i32 0, i32 0
  %24 = load ptr, ptr %23, align 8, !tbaa !719
  %25 = load i64, ptr %6, align 8, !tbaa !65
  %26 = load ptr, ptr %5, align 8, !tbaa !62
  call void @_ZN4Luau6detail16ItemInterfaceMapIPKNS_4TypeEbE4fillEPSt4pairIS4_bEmRKS4_(ptr noundef %24, i64 noundef %25, ptr noundef nonnull align 8 dereferenceable(8) %26)
  br label %27

27:                                               ; preds = %16, %3
  ret void
}

; Function Attrs: inlinehint mustprogress nounwind uwtable
define linkonce_odr dso_local void @_ZN4Luau12DenseHashMapIPKNS_4TypeEbNS_16DenseHashPointerESt8equal_toIS3_EED2Ev(ptr noundef nonnull align 8 dereferenceable(40) %0) unnamed_addr #3 comdat align 2 {
  %2 = alloca ptr, align 8
  store ptr %0, ptr %2, align 8, !tbaa !63
  %3 = load ptr, ptr %2, align 8
  %4 = getelementptr inbounds nuw %"class.Luau::DenseHashMap", ptr %3, i32 0, i32 0
  call void @_ZN4Luau6detail14DenseHashTableIPKNS_4TypeESt4pairIS4_bES5_IKS4_bENS0_16ItemInterfaceMapIS4_bEENS_16DenseHashPointerESt8equal_toIS4_EED2Ev(ptr noundef nonnull align 8 dereferenceable(34) %4) #4
  ret void
}

; Function Attrs: mustprogress uwtable
define linkonce_odr dso_local void @_ZN4Luau12DenseHashMapIPKNS_4TypeEbNS_16DenseHashPointerESt8equal_toIS3_EEC2ERKS3_m(ptr noundef nonnull align 8 dereferenceable(40) %0, ptr noundef nonnull align 8 dereferenceable(8) %1, i64 noundef %2) unnamed_addr #6 comdat align 2 {
  %4 = alloca ptr, align 8
  %5 = alloca ptr, align 8
  %6 = alloca i64, align 8
  store ptr %0, ptr %4, align 8, !tbaa !63
  store ptr %1, ptr %5, align 8, !tbaa !62
  store i64 %2, ptr %6, align 8, !tbaa !65
  %7 = load ptr, ptr %4, align 8
  %8 = getelementptr inbounds nuw %"class.Luau::DenseHashMap", ptr %7, i32 0, i32 0
  %9 = load ptr, ptr %5, align 8, !tbaa !62
  %10 = load i64, ptr %6, align 8, !tbaa !65
  call void @_ZN4Luau6detail14DenseHashTableIPKNS_4TypeESt4pairIS4_bES5_IKS4_bENS0_16ItemInterfaceMapIS4_bEENS_16DenseHashPointerESt8equal_toIS4_EEC2ERS7_m(ptr noundef nonnull align 8 dereferenceable(34) %8, ptr noundef nonnull align 8 dereferenceable(8) %9, i64 noundef %10)
  ret void
}

; Function Attrs: inlinehint mustprogress nounwind uwtable
define linkonce_odr dso_local void @_ZN4Luau3SetIPKNS_4TypeENS_16DenseHashPointerEED2Ev(ptr noundef nonnull align 8 dereferenceable(48) %0) unnamed_addr #3 comdat align 2 {
  %2 = alloca ptr, align 8
  store ptr %0, ptr %2, align 8, !tbaa !193
  %3 = load ptr, ptr %2, align 8
  %4 = getelementptr inbounds nuw %"class.Luau::Set", ptr %3, i32 0, i32 0
  call void @_ZN4Luau12DenseHashMapIPKNS_4TypeEbNS_16DenseHashPointerESt8equal_toIS3_EED2Ev(ptr noundef nonnull align 8 dereferenceable(40) %4) #4
  ret void
}

; Function Attrs: mustprogress uwtable
define linkonce_odr dso_local void @_ZN4Luau3SetIPKNS_4TypeENS_16DenseHashPointerEEC2ERKS3_(ptr noundef nonnull align 8 dereferenceable(48) %0, ptr noundef nonnull align 8 dereferenceable(8) %1) unnamed_addr #6 comdat align 2 {
  %3 = alloca ptr, align 8
  %4 = alloca ptr, align 8
  store ptr %0, ptr %3, align 8, !tbaa !193
  store ptr %1, ptr %4, align 8, !tbaa !62
  %5 = load ptr, ptr %3, align 8
  %6 = getelementptr inbounds nuw %"class.Luau::Set", ptr %5, i32 0, i32 0
  %7 = load ptr, ptr %4, align 8, !tbaa !62
  call void @_ZN4Luau12DenseHashMapIPKNS_4TypeEbNS_16DenseHashPointerESt8equal_toIS3_EEC2ERKS3_m(ptr noundef nonnull align 8 dereferenceable(40) %6, ptr noundef nonnull align 8 dereferenceable(8) %7, i64 noundef 0)
  %8 = getelementptr inbounds nuw %"class.Luau::Set", ptr %5, i32 0, i32 1
  store i64 0, ptr %8, align 8, !tbaa !195
  ret void
}

; Function Attrs: mustprogress uwtable
define internal noundef zeroext i1 @_ZN4LuauL11isCacheableEPKNS_4TypeE(ptr noundef %0) #6 personality ptr @__gxx_personality_v0 {
  %2 = alloca ptr, align 8
  %3 = alloca %"class.Luau::Set", align 8
  %4 = alloca ptr, align 8
  %5 = alloca ptr, align 8
  %6 = alloca i32, align 4
  store ptr %0, ptr %2, align 8, !tbaa !44
  call void @llvm.lifetime.start.p0(i64 48, ptr %3) #4
  call void @llvm.lifetime.start.p0(i64 8, ptr %4) #4
  store ptr null, ptr %4, align 8, !tbaa !44
  call void @_ZN4Luau3SetIPKNS_4TypeENS_16DenseHashPointerEEC2ERKS3_(ptr noundef nonnull align 8 dereferenceable(48) %3, ptr noundef nonnull align 8 dereferenceable(8) %4)
  call void @llvm.lifetime.end.p0(i64 8, ptr %4) #4
  %7 = load ptr, ptr %2, align 8, !tbaa !44
  %8 = invoke noundef zeroext i1 @_ZN4LuauL11isCacheableEPKNS_4TypeERNS_3SetIS2_NS_16DenseHashPointerEEE(ptr noundef %7, ptr noundef nonnull align 8 dereferenceable(48) %3)
          to label %9 unwind label %10

9:                                                ; preds = %1
  call void @_ZN4Luau3SetIPKNS_4TypeENS_16DenseHashPointerEED2Ev(ptr noundef nonnull align 8 dereferenceable(48) %3) #4
  call void @llvm.lifetime.end.p0(i64 48, ptr %3) #4
  ret i1 %8

10:                                               ; preds = %1
  %11 = landingpad { ptr, i32 }
          cleanup
  %12 = extractvalue { ptr, i32 } %11, 0
  store ptr %12, ptr %5, align 8
  %13 = extractvalue { ptr, i32 } %11, 1
  store i32 %13, ptr %6, align 4
  call void @_ZN4Luau3SetIPKNS_4TypeENS_16DenseHashPointerEED2Ev(ptr noundef nonnull align 8 dereferenceable(48) %3) #4
  call void @llvm.lifetime.end.p0(i64 48, ptr %3) #4
  br label %14

14:                                               ; preds = %10
  %15 = load ptr, ptr %5, align 8
  %16 = load i32, ptr %6, align 4
  %17 = insertvalue { ptr, i32 } poison, ptr %15, 0
  %18 = insertvalue { ptr, i32 } %17, i32 %16, 1
  resume { ptr, i32 } %18
}