; Function Attrs: mustprogress uwtable
define internal fastcc noundef zeroext i1 @_ZN4LuauL11isCacheableEPKNS_4TypeE(ptr noundef %0) unnamed_addr #4 personality ptr @__gxx_personality_v0 {
  %2 = alloca %"class.Luau::Set", align 8
  call void @llvm.lifetime.start.p0(i64 48, ptr nonnull %2) #32
  %3 = getelementptr inbounds nuw i8, ptr %2, i64 40
  store i64 0, ptr %3, align 8, !tbaa !152
  call void @llvm.memset.p0.i64(ptr noundef nonnull align 8 dereferenceable(32) %2, i8 0, i64 32, i1 false)
  %4 = invoke fastcc noundef zeroext i1 @_ZN4LuauL11isCacheableEPKNS_4TypeERNS_3SetIS2_NS_16DenseHashPointerEEE(ptr noundef %0, ptr noundef nonnull align 8 dereferenceable(48) %2)
          to label %5 unwind label %8

5:                                                ; preds = %1
  %6 = load ptr, ptr %2, align 8, !tbaa !26
  %.not.i.i.i = icmp eq ptr %6, null
  br i1 %.not.i.i.i, label %_ZN4Luau3SetIPKNS_4TypeENS_16DenseHashPointerEED2Ev.exit, label %7

7:                                                ; preds = %5
  call void @_ZdlPv(ptr noundef nonnull %6) #32
  br label %_ZN4Luau3SetIPKNS_4TypeENS_16DenseHashPointerEED2Ev.exit

_ZN4Luau3SetIPKNS_4TypeENS_16DenseHashPointerEED2Ev.exit: ; preds = %5, %7
  call void @llvm.lifetime.end.p0(i64 48, ptr nonnull %2) #32
  ret i1 %4

8:                                                ; preds = %1
  %9 = landingpad { ptr, i32 }
          cleanup
  %10 = load ptr, ptr %2, align 8, !tbaa !26
  %.not.i.i.i2 = icmp eq ptr %10, null
  br i1 %.not.i.i.i2, label %_ZN4Luau3SetIPKNS_4TypeENS_16DenseHashPointerEED2Ev.exit3, label %11

11:                                               ; preds = %8
  call void @_ZdlPv(ptr noundef nonnull %10) #32
  br label %_ZN4Luau3SetIPKNS_4TypeENS_16DenseHashPointerEED2Ev.exit3

_ZN4Luau3SetIPKNS_4TypeENS_16DenseHashPointerEED2Ev.exit3: ; preds = %8, %11
  call void @llvm.lifetime.end.p0(i64 48, ptr nonnull %2) #32
  resume { ptr, i32 } %9
}